target datalayout = "e-m:e-p270:32:32-p271:32:32-p272:64:64-i64:64-i128:128-f80:128-n8:16:32:64-S128"
target triple = "x86_64-pc-linux-gnu"

%struct.gmx_parallel_3dfft = type { ptr, ptr }

@.str.1 = private unnamed_addr constant [128 x i8] c"generated/home/dtcxzyw/WorkSpace/Projects/compilers/llvm-opt-benchmark/bench/gromacs/gromacs/src/gromacs/fft/parallel_3dfft.cpp\00", align 1
@.str.4 = private unnamed_addr constant [11 x i8] c"pfft_setup\00", align 1

; Function Attrs: inlinehint mustprogress uwtable
define internal void @_ZL14gmx_sfree_implI18gmx_parallel_3dfftEvPKcS2_iPT_(ptr noundef %0, ptr noundef %1, i32 noundef %2, ptr noundef %3) #2 {
  %5 = alloca ptr, align 8
  %6 = alloca ptr, align 8
  %7 = alloca i32, align 4
  %8 = alloca ptr, align 8
  store ptr %0, ptr %5, align 8, !tbaa !34
  store ptr %1, ptr %6, align 8, !tbaa !34
  store i32 %2, ptr %7, align 4, !tbaa !20
  store ptr %3, ptr %8, align 8, !tbaa !28
  %9 = load ptr, ptr %5, align 8, !tbaa !34
  %10 = load ptr, ptr %6, align 8, !tbaa !34
  %11 = load i32, ptr %7, align 4, !tbaa !20
  %12 = load ptr, ptr %8, align 8, !tbaa !28
  call void @_Z9save_freePKcS0_iPv(ptr noundef %9, ptr noundef %10, i32 noundef %11, ptr noundef %12)
  ret void
}

; Function Attrs: mustprogress uwtable
define noundef i32 @_Z26gmx_parallel_3dfft_destroyP18gmx_parallel_3dfft(ptr noundef %0) #0 {
  %2 = alloca ptr, align 8
  store ptr %0, ptr %2, align 8, !tbaa !28
  %3 = load ptr, ptr %2, align 8, !tbaa !28
  %4 = icmp ne ptr %3, null
  br i1 %4, label %5, label %13

5:                                                ; preds = %1
  %6 = load ptr, ptr %2, align 8, !tbaa !28
  %7 = getelementptr inbounds nuw %struct.gmx_parallel_3dfft, ptr %6, i32 0, i32 1
  %8 = load ptr, ptr %7, align 8, !tbaa !33
  call void @_Z13fft5d_destroyP12fft5d_plan_t(ptr noundef %8)
  %9 = load ptr, ptr %2, align 8, !tbaa !28
  %10 = getelementptr inbounds nuw %struct.gmx_parallel_3dfft, ptr %9, i32 0, i32 0
  %11 = load ptr, ptr %10, align 8, !tbaa !30
  call void @_Z13fft5d_destroyP12fft5d_plan_t(ptr noundef %11)
  %12 = load ptr, ptr %2, align 8, !tbaa !28
  call void @_ZL14gmx_sfree_implI18gmx_parallel_3dfftEvPKcS2_iPT_(ptr noundef @.str.4, ptr noundef @.str.1, i32 noundef 197, ptr noundef %12)
  br label %13

13:                                               ; preds = %5, %1
  ret i32 0
}