; Function Attrs: mustprogress uwtable
define noundef i32 @_Z26gmx_parallel_3dfft_destroyP18gmx_parallel_3dfft(ptr noundef %0) local_unnamed_addr #0 {
  %.not = icmp eq ptr %0, null
  br i1 %.not, label %6, label %2

2:                                                ; preds = %1
  %3 = getelementptr inbounds nuw i8, ptr %0, i64 8
  %4 = load ptr, ptr %3, align 8, !tbaa !16
  tail call void @_Z13fft5d_destroyP12fft5d_plan_t(ptr noundef %4)
  %5 = load ptr, ptr %0, align 8, !tbaa !13
  tail call void @_Z13fft5d_destroyP12fft5d_plan_t(ptr noundef %5)
  tail call void @_Z9save_freePKcS0_iPv(ptr noundef nonnull @.str.4, ptr noundef nonnull @.str.1, i32 noundef 197, ptr noundef nonnull %0)
  br label %6

6:                                                ; preds = %2, %1
  ret i32 0
}